target datalayout = "e-m:e-p270:32:32-p271:32:32-p272:64:64-i64:64-i128:128-f80:128-n8:16:32:64-S128"
target triple = "x86_64-pc-linux-gnu"

%class.LogTagSet = type { ptr, i64, [5 x i32], [4 x i8], %class.LogOutputList, %class.LogDecorators, ptr }
%class.LogOutputList = type <{ [6 x ptr], i32, [4 x i8] }>
%class.LogDecorators = type { i32 }
%class.CgroupV1Controller = type { %class.CgroupController, ptr, ptr, i8, ptr }
%class.CgroupController = type { ptr }
%class.CgroupV1CpuController = type { %class.CgroupCpuController, %class.CgroupV1Controller }
%class.CgroupCpuController = type { ptr }

@.str.59 = private unnamed_addr constant [18 x i8] c"/cpu.cfs_quota_us\00", align 1
@.str.60 = private unnamed_addr constant [21 x i8] c"CPU Quota failed: %d\00", align 1
@.str.61 = private unnamed_addr constant [17 x i8] c"CPU Quota is: %d\00", align 1
@_ZN16LogTagSetMappingILN6LogTag4typeE105ELS1_25ELS1_0ELS1_0ELS1_0ELS1_0EE7_tagsetE = linkonce_odr hidden global %class.LogTagSet zeroinitializer, comdat, align 8

; Function Attrs: mustprogress nounwind uwtable
define linkonce_odr hidden noundef zeroext i1 @_ZNK13LogOutputList8is_levelEN8LogLevel4typeE(ptr noundef nonnull align 8 dereferenceable(52) %0, i32 noundef %1) #1 comdat align 2 {
  %3 = alloca ptr, align 8
  %4 = alloca i32, align 4
  store ptr %0, ptr %3, align 8
  store i32 %1, ptr %4, align 4
  %5 = load ptr, ptr %3, align 8
  %6 = getelementptr inbounds %class.LogOutputList, ptr %5, i32 0, i32 0
  %7 = load i32, ptr %4, align 4
  %8 = zext i32 %7 to i64
  %9 = getelementptr inbounds [6 x ptr], ptr %6, i64 0, i64 %8
  %10 = load volatile ptr, ptr %9, align 8
  %11 = icmp ne ptr %10, null
  ret i1 %11
}

; Function Attrs: mustprogress nounwind uwtable
define linkonce_odr hidden noundef zeroext i1 @_ZNK9LogTagSet8is_levelEN8LogLevel4typeE(ptr noundef nonnull align 8 dereferenceable(112) %0, i32 noundef %1) #1 comdat align 2 {
  %3 = alloca ptr, align 8
  %4 = alloca i32, align 4
  store ptr %0, ptr %3, align 8
  store i32 %1, ptr %4, align 4
  %5 = load ptr, ptr %3, align 8
  %6 = getelementptr inbounds %class.LogTagSet, ptr %5, i32 0, i32 4
  %7 = load i32, ptr %4, align 4
  %8 = call noundef zeroext i1 @_ZNK13LogOutputList8is_levelEN8LogLevel4typeE(ptr noundef nonnull align 8 dereferenceable(52) %6, i32 noundef %7)
  ret i1 %8
}

; Function Attrs: mustprogress nounwind uwtable
define linkonce_odr hidden noundef nonnull align 8 dereferenceable(112) ptr @_ZN16LogTagSetMappingILN6LogTag4typeE105ELS1_25ELS1_0ELS1_0ELS1_0ELS1_0EE6tagsetEv() #1 comdat align 2 {
  ret ptr @_ZN16LogTagSetMappingILN6LogTag4typeE105ELS1_25ELS1_0ELS1_0ELS1_0ELS1_0EE7_tagsetE
}

; Function Attrs: mustprogress nounwind uwtable
define linkonce_odr hidden noundef zeroext i1 @_ZN7LogImplILN6LogTag4typeE105ELS1_25ELS1_0ELS1_0ELS1_0ELS1_0EE8is_levelEN8LogLevel4typeE(i32 noundef %0) #1 comdat align 2 {
  %2 = alloca i32, align 4
  store i32 %0, ptr %2, align 4
  %3 = call noundef nonnull align 8 dereferenceable(112) ptr @_ZN16LogTagSetMappingILN6LogTag4typeE105ELS1_25ELS1_0ELS1_0ELS1_0ELS1_0EE6tagsetEv()
  %4 = load i32, ptr %2, align 4
  %5 = call noundef zeroext i1 @_ZNK9LogTagSet8is_levelEN8LogLevel4typeE(ptr noundef nonnull align 8 dereferenceable(112) %3, i32 noundef %4)
  ret i1 %5
}

; Function Attrs: mustprogress nounwind uwtable
define linkonce_odr hidden noundef ptr @_ZN21CgroupV1CpuController6readerEv(ptr noundef nonnull align 8 dereferenceable(48) %0) #1 comdat align 2 {
  %2 = alloca ptr, align 8
  store ptr %0, ptr %2, align 8
  %3 = load ptr, ptr %2, align 8
  %4 = getelementptr inbounds %class.CgroupV1CpuController, ptr %3, i32 0, i32 1
  ret ptr %4
}

; Function Attrs: mustprogress nounwind uwtable
define hidden noundef i32 @_ZN21CgroupV1CpuController9cpu_quotaEv(ptr noundef nonnull align 8 dereferenceable(48) %0) unnamed_addr #1 align 2 {
  %2 = alloca i32, align 4
  %3 = alloca ptr, align 8
  %4 = alloca i64, align 8
  %5 = alloca i8, align 1
  %6 = alloca i32, align 4
  store ptr %0, ptr %3, align 8
  %7 = load ptr, ptr %3, align 8
  %8 = call noundef ptr @_ZN21CgroupV1CpuController6readerEv(ptr noundef nonnull align 8 dereferenceable(48) %7)
  %9 = call noundef zeroext i1 @_ZN16CgroupController11read_numberEPKcPm(ptr noundef nonnull align 8 dereferenceable(8) %8, ptr noundef @.str.59, ptr noundef %4)
  %10 = zext i1 %9 to i8
  store i8 %10, ptr %5, align 1
  %11 = load i8, ptr %5, align 1
  %12 = trunc i8 %11 to i1
  br i1 %12, label %18, label %13

13:                                               ; preds = %1
  %14 = call noundef zeroext i1 @_ZN7LogImplILN6LogTag4typeE105ELS1_25ELS1_0ELS1_0ELS1_0ELS1_0EE8is_levelEN8LogLevel4typeE(i32 noundef 1)
  br i1 %14, label %16, label %15

15:                                               ; preds = %13
  br label %17

16:                                               ; preds = %13
  call void (ptr, ...) @_ZN7LogImplILN6LogTag4typeE105ELS1_25ELS1_0ELS1_0ELS1_0ELS1_0EE5writeILN8LogLevel4typeE1EEEvPKcz(ptr noundef @.str.60, i32 noundef -2)
  br label %17

17:                                               ; preds = %16, %15
  store i32 -2, ptr %2, align 4
  br label %27

18:                                               ; preds = %1
  %19 = load i64, ptr %4, align 8
  %20 = trunc i64 %19 to i32
  store i32 %20, ptr %6, align 4
  %21 = call noundef zeroext i1 @_ZN7LogImplILN6LogTag4typeE105ELS1_25ELS1_0ELS1_0ELS1_0ELS1_0EE8is_levelEN8LogLevel4typeE(i32 noundef 1)
  br i1 %21, label %23, label %22

22:                                               ; preds = %18
  br label %25

23:                                               ; preds = %18
  %24 = load i32, ptr %6, align 4
  call void (ptr, ...) @_ZN7LogImplILN6LogTag4typeE105ELS1_25ELS1_0ELS1_0ELS1_0ELS1_0EE5writeILN8LogLevel4typeE1EEEvPKcz(ptr noundef @.str.61, i32 noundef %24)
  br label %25

25:                                               ; preds = %23, %22
  %26 = load i32, ptr %6, align 4
  store i32 %26, ptr %2, align 4
  br label %27

27:                                               ; preds = %25, %17
  %28 = load i32, ptr %2, align 4
  ret i32 %28
}