; Function Attrs: mustprogress nounwind uwtable
define hidden noundef i32 @_ZN21CgroupV1CpuController9cpu_quotaEv(ptr noundef nonnull align 8 dereferenceable(48) %0) unnamed_addr #0 align 2 {
  %2 = alloca i64, align 8
  %3 = getelementptr inbounds i8, ptr %0, i64 8
  %4 = call noundef zeroext i1 @_ZN16CgroupController11read_numberEPKcPm(ptr noundef nonnull align 8 dereferenceable(8) %3, ptr noundef nonnull @.str.59, ptr noundef nonnull %2) #7
  br i1 %4, label %8, label %5

5:                                                ; preds = %1
  %6 = load volatile ptr, ptr getelementptr inbounds (i8, ptr @_ZN16LogTagSetMappingILN6LogTag4typeE105ELS1_25ELS1_0ELS1_0ELS1_0ELS1_0EE7_tagsetE, i64 48), align 8
  %.not = icmp eq ptr %6, null
  br i1 %.not, label %13, label %7

7:                                                ; preds = %5
  call void (ptr, ...) @_ZN7LogImplILN6LogTag4typeE105ELS1_25ELS1_0ELS1_0ELS1_0ELS1_0EE5writeILN8LogLevel4typeE1EEEvPKcz(ptr noundef nonnull @.str.60, i32 noundef -2)
  br label %13

8:                                                ; preds = %1
  %9 = load i64, ptr %2, align 8
  %10 = trunc i64 %9 to i32
  %11 = load volatile ptr, ptr getelementptr inbounds (i8, ptr @_ZN16LogTagSetMappingILN6LogTag4typeE105ELS1_25ELS1_0ELS1_0ELS1_0ELS1_0EE7_tagsetE, i64 48), align 8
  %.not4 = icmp eq ptr %11, null
  br i1 %.not4, label %13, label %12

12:                                               ; preds = %8
  call void (ptr, ...) @_ZN7LogImplILN6LogTag4typeE105ELS1_25ELS1_0ELS1_0ELS1_0ELS1_0EE5writeILN8LogLevel4typeE1EEEvPKcz(ptr noundef nonnull @.str.61, i32 noundef %10)
  br label %13

13:                                               ; preds = %12, %8, %7, %5
  %.0 = phi i32 [ -2, %5 ], [ -2, %7 ], [ %10, %8 ], [ %10, %12 ]
  ret i32 %.0
}